target datalayout = "e-m:e-p270:32:32-p271:32:32-p272:64:64-i64:64-i128:128-f80:128-n8:16:32:64-S128"
target triple = "x86_64-pc-linux-gnu"

%struct.PS_DimensionRec_ = type { %struct.PS_Hint_TableRec_, %struct.PS_Mask_TableRec_, %struct.PS_Mask_TableRec_ }
%struct.PS_Hint_TableRec_ = type { i32, i32, ptr }
%struct.PS_Mask_TableRec_ = type { i32, i32, ptr }
%struct.PS_MaskRec_ = type { i32, i32, ptr, i32 }

; Function Attrs: nounwind uwtable
define internal void @ps_mask_done(ptr noundef %0, ptr noundef %1) #0 {
  %3 = alloca ptr, align 8
  %4 = alloca ptr, align 8
  store ptr %0, ptr %3, align 8
  store ptr %1, ptr %4, align 8
  br label %5

5:                                                ; preds = %2
  %6 = load ptr, ptr %4, align 8
  %7 = load ptr, ptr %3, align 8
  %8 = getelementptr inbounds %struct.PS_MaskRec_, ptr %7, i32 0, i32 2
  %9 = load ptr, ptr %8, align 8
  call void @ft_mem_free(ptr noundef %6, ptr noundef %9)
  %10 = load ptr, ptr %3, align 8
  %11 = getelementptr inbounds %struct.PS_MaskRec_, ptr %10, i32 0, i32 2
  store ptr null, ptr %11, align 8
  br label %12

12:                                               ; preds = %5
  %13 = load ptr, ptr %3, align 8
  %14 = getelementptr inbounds %struct.PS_MaskRec_, ptr %13, i32 0, i32 0
  store i32 0, ptr %14, align 8
  %15 = load ptr, ptr %3, align 8
  %16 = getelementptr inbounds %struct.PS_MaskRec_, ptr %15, i32 0, i32 1
  store i32 0, ptr %16, align 4
  %17 = load ptr, ptr %3, align 8
  %18 = getelementptr inbounds %struct.PS_MaskRec_, ptr %17, i32 0, i32 3
  store i32 0, ptr %18, align 8
  ret void
}

; Function Attrs: nounwind uwtable
define internal void @ps_hint_table_done(ptr noundef %0, ptr noundef %1) #0 {
  %3 = alloca ptr, align 8
  %4 = alloca ptr, align 8
  store ptr %0, ptr %3, align 8
  store ptr %1, ptr %4, align 8
  br label %5

5:                                                ; preds = %2
  %6 = load ptr, ptr %4, align 8
  %7 = load ptr, ptr %3, align 8
  %8 = getelementptr inbounds %struct.PS_Hint_TableRec_, ptr %7, i32 0, i32 2
  %9 = load ptr, ptr %8, align 8
  call void @ft_mem_free(ptr noundef %6, ptr noundef %9)
  %10 = load ptr, ptr %3, align 8
  %11 = getelementptr inbounds %struct.PS_Hint_TableRec_, ptr %10, i32 0, i32 2
  store ptr null, ptr %11, align 8
  br label %12

12:                                               ; preds = %5
  %13 = load ptr, ptr %3, align 8
  %14 = getelementptr inbounds %struct.PS_Hint_TableRec_, ptr %13, i32 0, i32 0
  store i32 0, ptr %14, align 8
  %15 = load ptr, ptr %3, align 8
  %16 = getelementptr inbounds %struct.PS_Hint_TableRec_, ptr %15, i32 0, i32 1
  store i32 0, ptr %16, align 4
  ret void
}

; Function Attrs: nounwind uwtable
define internal void @ps_mask_table_done(ptr noundef %0, ptr noundef %1) #0 {
  %3 = alloca ptr, align 8
  %4 = alloca ptr, align 8
  %5 = alloca i32, align 4
  %6 = alloca ptr, align 8
  store ptr %0, ptr %3, align 8
  store ptr %1, ptr %4, align 8
  %7 = load ptr, ptr %3, align 8
  %8 = getelementptr inbounds %struct.PS_Mask_TableRec_, ptr %7, i32 0, i32 1
  %9 = load i32, ptr %8, align 4
  store i32 %9, ptr %5, align 4
  %10 = load ptr, ptr %3, align 8
  %11 = getelementptr inbounds %struct.PS_Mask_TableRec_, ptr %10, i32 0, i32 2
  %12 = load ptr, ptr %11, align 8
  store ptr %12, ptr %6, align 8
  br label %13

13:                                               ; preds = %19, %2
  %14 = load i32, ptr %5, align 4
  %15 = icmp ugt i32 %14, 0
  br i1 %15, label %16, label %24

16:                                               ; preds = %13
  %17 = load ptr, ptr %6, align 8
  %18 = load ptr, ptr %4, align 8
  call void @ps_mask_done(ptr noundef %17, ptr noundef %18)
  br label %19

19:                                               ; preds = %16
  %20 = load i32, ptr %5, align 4
  %21 = add i32 %20, -1
  store i32 %21, ptr %5, align 4
  %22 = load ptr, ptr %6, align 8
  %23 = getelementptr inbounds %struct.PS_MaskRec_, ptr %22, i32 1
  store ptr %23, ptr %6, align 8
  br label %13, !llvm.loop !90

24:                                               ; preds = %13
  br label %25

25:                                               ; preds = %24
  %26 = load ptr, ptr %4, align 8
  %27 = load ptr, ptr %3, align 8
  %28 = getelementptr inbounds %struct.PS_Mask_TableRec_, ptr %27, i32 0, i32 2
  %29 = load ptr, ptr %28, align 8
  call void @ft_mem_free(ptr noundef %26, ptr noundef %29)
  %30 = load ptr, ptr %3, align 8
  %31 = getelementptr inbounds %struct.PS_Mask_TableRec_, ptr %30, i32 0, i32 2
  store ptr null, ptr %31, align 8
  br label %32

32:                                               ; preds = %25
  %33 = load ptr, ptr %3, align 8
  %34 = getelementptr inbounds %struct.PS_Mask_TableRec_, ptr %33, i32 0, i32 0
  store i32 0, ptr %34, align 8
  %35 = load ptr, ptr %3, align 8
  %36 = getelementptr inbounds %struct.PS_Mask_TableRec_, ptr %35, i32 0, i32 1
  store i32 0, ptr %36, align 4
  ret void
}

; Function Attrs: nounwind uwtable
define internal void @ps_dimension_done(ptr noundef %0, ptr noundef %1) #0 {
  %3 = alloca ptr, align 8
  %4 = alloca ptr, align 8
  store ptr %0, ptr %3, align 8
  store ptr %1, ptr %4, align 8
  %5 = load ptr, ptr %3, align 8
  %6 = getelementptr inbounds %struct.PS_DimensionRec_, ptr %5, i32 0, i32 2
  %7 = load ptr, ptr %4, align 8
  call void @ps_mask_table_done(ptr noundef %6, ptr noundef %7)
  %8 = load ptr, ptr %3, align 8
  %9 = getelementptr inbounds %struct.PS_DimensionRec_, ptr %8, i32 0, i32 1
  %10 = load ptr, ptr %4, align 8
  call void @ps_mask_table_done(ptr noundef %9, ptr noundef %10)
  %11 = load ptr, ptr %3, align 8
  %12 = getelementptr inbounds %struct.PS_DimensionRec_, ptr %11, i32 0, i32 0
  %13 = load ptr, ptr %4, align 8
  call void @ps_hint_table_done(ptr noundef %12, ptr noundef %13)
  ret void
}