; Function Attrs: nounwind uwtable
define internal fastcc void @ps_dimension_done(ptr nocapture noundef %0, ptr noundef %1) unnamed_addr #0 {
  %3 = getelementptr inbounds i8, ptr %0, i64 32
  %4 = getelementptr inbounds i8, ptr %0, i64 36
  %5 = load i32, ptr %4, align 4
  %6 = getelementptr inbounds i8, ptr %0, i64 40
  %7 = load ptr, ptr %6, align 8
  %.not12.i = icmp eq i32 %5, 0
  br i1 %.not12.i, label %ps_mask_table_done.exit, label %.lr.ph.i

.lr.ph.i:                                         ; preds = %2, %.lr.ph.i
  %.014.i = phi ptr [ %11, %.lr.ph.i ], [ %7, %2 ]
  %.01113.i = phi i32 [ %10, %.lr.ph.i ], [ %5, %2 ]
  %8 = getelementptr inbounds i8, ptr %.014.i, i64 8
  %9 = load ptr, ptr %8, align 8
  tail call void @ft_mem_free(ptr noundef %1, ptr noundef %9) #11
  tail call void @llvm.memset.p0.i64(ptr noundef nonnull align 8 dereferenceable(20) %.014.i, i8 0, i64 20, i1 false)
  %10 = add i32 %.01113.i, -1
  %11 = getelementptr inbounds i8, ptr %.014.i, i64 24
  %.not.i = icmp eq i32 %10, 0
  br i1 %.not.i, label %._crit_edge.loopexit.i, label %.lr.ph.i, !llvm.loop !90

._crit_edge.loopexit.i:                           ; preds = %.lr.ph.i
  %.pre.i = load ptr, ptr %6, align 8
  br label %ps_mask_table_done.exit

ps_mask_table_done.exit:                          ; preds = %2, %._crit_edge.loopexit.i
  %12 = phi ptr [ %.pre.i, %._crit_edge.loopexit.i ], [ %7, %2 ]
  tail call void @ft_mem_free(ptr noundef %1, ptr noundef %12) #11
  tail call void @llvm.memset.p0.i64(ptr noundef nonnull align 8 dereferenceable(16) %3, i8 0, i64 16, i1 false)
  %13 = getelementptr inbounds i8, ptr %0, i64 20
  %14 = load i32, ptr %13, align 4
  %15 = getelementptr inbounds i8, ptr %0, i64 24
  %16 = load ptr, ptr %15, align 8
  %.not12.i6 = icmp eq i32 %14, 0
  br i1 %.not12.i6, label %ps_mask_table_done.exit13, label %.lr.ph.i7

.lr.ph.i7:                                        ; preds = %ps_mask_table_done.exit, %.lr.ph.i7
  %.014.i8 = phi ptr [ %20, %.lr.ph.i7 ], [ %16, %ps_mask_table_done.exit ]
  %.01113.i9 = phi i32 [ %19, %.lr.ph.i7 ], [ %14, %ps_mask_table_done.exit ]
  %17 = getelementptr inbounds i8, ptr %.014.i8, i64 8
  %18 = load ptr, ptr %17, align 8
  tail call void @ft_mem_free(ptr noundef %1, ptr noundef %18) #11
  tail call void @llvm.memset.p0.i64(ptr noundef nonnull align 8 dereferenceable(20) %.014.i8, i8 0, i64 20, i1 false)
  %19 = add i32 %.01113.i9, -1
  %20 = getelementptr inbounds i8, ptr %.014.i8, i64 24
  %.not.i10 = icmp eq i32 %19, 0
  br i1 %.not.i10, label %._crit_edge.loopexit.i11, label %.lr.ph.i7, !llvm.loop !90

._crit_edge.loopexit.i11:                         ; preds = %.lr.ph.i7
  %.pre.i12 = load ptr, ptr %15, align 8
  br label %ps_mask_table_done.exit13

ps_mask_table_done.exit13:                        ; preds = %ps_mask_table_done.exit, %._crit_edge.loopexit.i11
  %21 = phi ptr [ %.pre.i12, %._crit_edge.loopexit.i11 ], [ %16, %ps_mask_table_done.exit ]
  %22 = getelementptr inbounds i8, ptr %0, i64 16
  tail call void @ft_mem_free(ptr noundef %1, ptr noundef %21) #11
  tail call void @llvm.memset.p0.i64(ptr noundef nonnull align 8 dereferenceable(16) %22, i8 0, i64 16, i1 false)
  %23 = getelementptr inbounds i8, ptr %0, i64 8
  %24 = load ptr, ptr %23, align 8
  tail call void @ft_mem_free(ptr noundef %1, ptr noundef %24) #11
  tail call void @llvm.memset.p0.i64(ptr noundef nonnull align 8 dereferenceable(16) %0, i8 0, i64 16, i1 false)
  ret void
}